target datalayout = "e-m:e-p270:32:32-p271:32:32-p272:64:64-i64:64-i128:128-f80:128-n8:16:32:64-S128"
target triple = "x86_64-pc-linux-gnu"

%struct.EventTriggerQueryState = type { ptr, %struct.slist_head, i8, i32, i32, i8, ptr, ptr, ptr }
%struct.slist_head = type { %struct.slist_node }
%struct.slist_node = type { ptr }

@currentEventTriggerState = internal global ptr null, align 8
@TopMemoryContext = external global ptr, align 8
@.str.18 = private unnamed_addr constant [20 x i8] c"event trigger state\00", align 1

; Function Attrs: inlinehint nounwind uwtable
define internal void @slist_init(ptr noundef %0) #6 {
  %2 = alloca ptr, align 8
  store ptr %0, ptr %2, align 8
  %3 = load ptr, ptr %2, align 8
  %4 = getelementptr inbounds nuw %struct.slist_head, ptr %3, i32 0, i32 0
  %5 = getelementptr inbounds nuw %struct.slist_node, ptr %4, i32 0, i32 0
  store ptr null, ptr %5, align 8
  ret void
}

; Function Attrs: nounwind uwtable
define dso_local zeroext i1 @trackDroppedObjectsNeeded() #0 {
  %1 = call ptr @EventCacheLookup(i32 noundef 2)
  %2 = icmp ne ptr %1, null
  br i1 %2, label %9, label %3

3:                                                ; preds = %0
  %4 = call ptr @EventCacheLookup(i32 noundef 3)
  %5 = icmp ne ptr %4, null
  br i1 %5, label %9, label %6

6:                                                ; preds = %3
  %7 = call ptr @EventCacheLookup(i32 noundef 1)
  %8 = icmp ne ptr %7, null
  br label %9

9:                                                ; preds = %6, %3, %0
  %10 = phi i1 [ true, %3 ], [ true, %0 ], [ %8, %6 ]
  ret i1 %10
}

; Function Attrs: nounwind uwtable
define dso_local zeroext i1 @EventTriggerBeginCompleteQuery() #0 {
  %1 = alloca i1, align 1
  %2 = alloca ptr, align 8
  %3 = alloca ptr, align 8
  %4 = alloca i32, align 4
  %5 = alloca i32, align 4
  call void @llvm.lifetime.start.p0(i64 8, ptr %2) #10
  call void @llvm.lifetime.start.p0(i64 8, ptr %3) #10
  %6 = call zeroext i1 @trackDroppedObjectsNeeded()
  br i1 %6, label %8, label %7

7:                                                ; preds = %0
  store i1 false, ptr %1, align 1
  store i32 1, ptr %4, align 4
  br label %48

8:                                                ; preds = %0
  br label %9

9:                                                ; preds = %8
  br label %10

10:                                               ; preds = %9
  br label %11

11:                                               ; preds = %10
  store i32 1, ptr %5, align 4
  %12 = load ptr, ptr @TopMemoryContext, align 8
  %13 = call ptr @AllocSetContextCreateInternal(ptr noundef %12, ptr noundef @.str.18, i64 noundef 0, i64 noundef 8192, i64 noundef 8388608)
  store ptr %13, ptr %3, align 8
  %14 = load ptr, ptr %3, align 8
  %15 = call ptr @MemoryContextAlloc(ptr noundef %14, i64 noundef 56)
  store ptr %15, ptr %2, align 8
  %16 = load ptr, ptr %3, align 8
  %17 = load ptr, ptr %2, align 8
  %18 = getelementptr inbounds nuw %struct.EventTriggerQueryState, ptr %17, i32 0, i32 0
  store ptr %16, ptr %18, align 8
  %19 = load ptr, ptr %2, align 8
  %20 = getelementptr inbounds nuw %struct.EventTriggerQueryState, ptr %19, i32 0, i32 1
  call void @slist_init(ptr noundef %20)
  %21 = load ptr, ptr %2, align 8
  %22 = getelementptr inbounds nuw %struct.EventTriggerQueryState, ptr %21, i32 0, i32 2
  store i8 0, ptr %22, align 8
  %23 = load ptr, ptr %2, align 8
  %24 = getelementptr inbounds nuw %struct.EventTriggerQueryState, ptr %23, i32 0, i32 3
  store i32 0, ptr %24, align 4
  %25 = load ptr, ptr @currentEventTriggerState, align 8
  %26 = icmp ne ptr %25, null
  br i1 %26, label %27, label %33

27:                                               ; preds = %11
  %28 = load ptr, ptr @currentEventTriggerState, align 8
  %29 = getelementptr inbounds nuw %struct.EventTriggerQueryState, ptr %28, i32 0, i32 5
  %30 = load i8, ptr %29, align 4, !range !8, !noundef !9
  %31 = trunc i8 %30 to i1
  %32 = zext i1 %31 to i32
  br label %34

33:                                               ; preds = %11
  br label %34

34:                                               ; preds = %33, %27
  %35 = phi i32 [ %32, %27 ], [ 0, %33 ]
  %36 = icmp ne i32 %35, 0
  %37 = load ptr, ptr %2, align 8
  %38 = getelementptr inbounds nuw %struct.EventTriggerQueryState, ptr %37, i32 0, i32 5
  %39 = zext i1 %36 to i8
  store i8 %39, ptr %38, align 4
  %40 = load ptr, ptr %2, align 8
  %41 = getelementptr inbounds nuw %struct.EventTriggerQueryState, ptr %40, i32 0, i32 6
  store ptr null, ptr %41, align 8
  %42 = load ptr, ptr %2, align 8
  %43 = getelementptr inbounds nuw %struct.EventTriggerQueryState, ptr %42, i32 0, i32 7
  store ptr null, ptr %43, align 8
  %44 = load ptr, ptr @currentEventTriggerState, align 8
  %45 = load ptr, ptr %2, align 8
  %46 = getelementptr inbounds nuw %struct.EventTriggerQueryState, ptr %45, i32 0, i32 8
  store ptr %44, ptr %46, align 8
  %47 = load ptr, ptr %2, align 8
  store ptr %47, ptr @currentEventTriggerState, align 8
  store i1 true, ptr %1, align 1
  store i32 1, ptr %4, align 4
  br label %48

48:                                               ; preds = %34, %7
  call void @llvm.lifetime.end.p0(i64 8, ptr %3) #10
  call void @llvm.lifetime.end.p0(i64 8, ptr %2) #10
  %49 = load i1, ptr %1, align 1
  ret i1 %49
}