; Function Attrs: nounwind uwtable
define dso_local noundef zeroext i1 @EventTriggerBeginCompleteQuery() local_unnamed_addr #0 {
  %1 = tail call ptr @EventCacheLookup(i32 noundef 2) #16
  %.not.i = icmp eq ptr %1, null
  br i1 %.not.i, label %2, label %trackDroppedObjectsNeeded.exit.thread

2:                                                ; preds = %0
  %3 = tail call ptr @EventCacheLookup(i32 noundef 3) #16
  %.not1.i = icmp eq ptr %3, null
  br i1 %.not1.i, label %trackDroppedObjectsNeeded.exit, label %trackDroppedObjectsNeeded.exit.thread

trackDroppedObjectsNeeded.exit:                   ; preds = %2
  %4 = tail call ptr @EventCacheLookup(i32 noundef 1) #16
  %.not13 = icmp eq ptr %4, null
  br i1 %.not13, label %20, label %trackDroppedObjectsNeeded.exit.thread

trackDroppedObjectsNeeded.exit.thread:            ; preds = %0, %2, %trackDroppedObjectsNeeded.exit
  %5 = load ptr, ptr @TopMemoryContext, align 8
  %6 = tail call ptr @AllocSetContextCreateInternal(ptr noundef %5, ptr noundef nonnull @.str.18, i64 noundef 0, i64 noundef 8192, i64 noundef 8388608) #16
  %7 = tail call ptr @MemoryContextAlloc(ptr noundef %6, i64 noundef 56) #16
  store ptr %6, ptr %7, align 8
  %8 = getelementptr inbounds nuw i8, ptr %7, i64 8
  store ptr null, ptr %8, align 8
  %9 = getelementptr inbounds nuw i8, ptr %7, i64 16
  store i8 0, ptr %9, align 8
  %10 = getelementptr inbounds nuw i8, ptr %7, i64 20
  store i32 0, ptr %10, align 4
  %11 = load ptr, ptr @currentEventTriggerState, align 8
  %.not = icmp eq ptr %11, null
  br i1 %.not, label %15, label %12

12:                                               ; preds = %trackDroppedObjectsNeeded.exit.thread
  %13 = getelementptr inbounds nuw i8, ptr %11, i64 28
  %14 = load i8, ptr %13, align 4, !range !9, !noundef !10
  br label %15

15:                                               ; preds = %trackDroppedObjectsNeeded.exit.thread, %12
  %16 = phi i8 [ %14, %12 ], [ 0, %trackDroppedObjectsNeeded.exit.thread ]
  %17 = getelementptr inbounds nuw i8, ptr %7, i64 28
  store i8 %16, ptr %17, align 4
  %18 = getelementptr inbounds nuw i8, ptr %7, i64 32
  %19 = getelementptr inbounds nuw i8, ptr %7, i64 48
  tail call void @llvm.memset.p0.i64(ptr noundef nonnull align 8 dereferenceable(16) %18, i8 0, i64 16, i1 false)
  store ptr %11, ptr %19, align 8
  store ptr %7, ptr @currentEventTriggerState, align 8
  br label %20

20:                                               ; preds = %trackDroppedObjectsNeeded.exit, %15
  %21 = phi i1 [ false, %trackDroppedObjectsNeeded.exit ], [ true, %15 ]
  ret i1 %21
}